target datalayout = "e-m:e-p270:32:32-p271:32:32-p272:64:64-i64:64-i128:128-f80:128-n8:16:32:64-S128"
target triple = "x86_64-pc-linux-gnu"

; Function Attrs: inlinehint mustprogress nounwind uwtable
define linkonce_odr hidden noundef ptr @_ZN8facebook4yoga10resolveRefEP8YGConfig(ptr noundef %0) #5 comdat {
  %2 = alloca ptr, align 8
  store ptr %0, ptr %2, align 8, !tbaa !24
  %3 = load ptr, ptr %2, align 8, !tbaa !24
  ret ptr %3
}

; Function Attrs: mustprogress uwtable
define void @YGConfigSetLogger(ptr noundef %0, ptr noundef %1) #0 {
  %3 = alloca ptr, align 8
  %4 = alloca ptr, align 8
  store ptr %0, ptr %3, align 8, !tbaa !24
  store ptr %1, ptr %4, align 8, !tbaa !9
  %5 = load ptr, ptr %4, align 8, !tbaa !9
  %6 = icmp ne ptr %5, null
  br i1 %6, label %7, label %11

7:                                                ; preds = %2
  %8 = load ptr, ptr %3, align 8, !tbaa !24
  %9 = call noundef ptr @_ZN8facebook4yoga10resolveRefEP8YGConfig(ptr noundef %8)
  %10 = load ptr, ptr %4, align 8, !tbaa !9
  call void @_ZN8facebook4yoga6Config9setLoggerEPFiPK8YGConfigPK6YGNode10YGLogLevelPKcP13__va_list_tagE(ptr noundef nonnull align 8 dereferenceable(48) %9, ptr noundef %10)
  br label %15

11:                                               ; preds = %2
  %12 = load ptr, ptr %3, align 8, !tbaa !24
  %13 = call noundef ptr @_ZN8facebook4yoga10resolveRefEP8YGConfig(ptr noundef %12)
  %14 = call noundef ptr @_ZN8facebook4yoga16getDefaultLoggerEv()
  call void @_ZN8facebook4yoga6Config9setLoggerEPFiPK8YGConfigPK6YGNode10YGLogLevelPKcP13__va_list_tagE(ptr noundef nonnull align 8 dereferenceable(48) %13, ptr noundef %14)
  br label %15

15:                                               ; preds = %11, %7
  ret void
}