; Function Attrs: mustprogress uwtable
define void @YGConfigSetLogger(ptr noundef %0, ptr noundef %1) local_unnamed_addr #0 {
  %.not = icmp eq ptr %1, null
  br i1 %.not, label %3, label %5

3:                                                ; preds = %2
  %4 = tail call noundef ptr @_ZN8facebook4yoga16getDefaultLoggerEv()
  br label %5

5:                                                ; preds = %2, %3
  %.sink = phi ptr [ %4, %3 ], [ %1, %2 ]
  tail call void @_ZN8facebook4yoga6Config9setLoggerEPFiPK8YGConfigPK6YGNode10YGLogLevelPKcP13__va_list_tagE(ptr noundef nonnull align 8 dereferenceable(48) %0, ptr noundef %.sink)
  ret void
}